; Function Attrs: mustprogress nounwind uwtable
define hidden void @_ZN22SystemDictionaryShared26set_shared_class_misc_infoEP13InstanceKlassP15ClassFileStream(ptr noundef %0, ptr nocapture noundef readonly %1) local_unnamed_addr #0 align 2 {
  %3 = load ptr, ptr @DumpTimeTable_lock, align 8
  %.not.i.i.i = icmp eq ptr %3, null
  br i1 %.not.i.i.i, label %_ZN11MutexLockerC2EP5MutexNS0_18SafepointCheckFlagE.exit.thread.i, label %6

_ZN11MutexLockerC2EP5MutexNS0_18SafepointCheckFlagE.exit.thread.i: ; preds = %2
  %4 = load ptr, ptr @_ZN22SystemDictionaryShared15_dumptime_tableE, align 8
  %5 = tail call noundef ptr @_ZN24DumpTimeSharedClassTable8get_infoEP13InstanceKlass(ptr noundef nonnull align 8 dereferenceable(127124) %4, ptr noundef %0) #18
  br label %_ZN22SystemDictionaryShared8get_infoEP13InstanceKlass.exit

6:                                                ; preds = %2
  tail call void @_ZN5Mutex28lock_without_safepoint_checkEv(ptr noundef nonnull align 8 dereferenceable(104) %3) #18
  %7 = load ptr, ptr @_ZN22SystemDictionaryShared15_dumptime_tableE, align 8
  %8 = tail call noundef ptr @_ZN24DumpTimeSharedClassTable8get_infoEP13InstanceKlass(ptr noundef nonnull align 8 dereferenceable(127124) %7, ptr noundef %0) #18
  tail call void @_ZN5Mutex6unlockEv(ptr noundef nonnull align 8 dereferenceable(104) %3) #18
  br label %_ZN22SystemDictionaryShared8get_infoEP13InstanceKlass.exit

_ZN22SystemDictionaryShared8get_infoEP13InstanceKlass.exit: ; preds = %_ZN11MutexLockerC2EP5MutexNS0_18SafepointCheckFlagE.exit.thread.i, %6
  %9 = phi ptr [ %5, %_ZN11MutexLockerC2EP5MutexNS0_18SafepointCheckFlagE.exit.thread.i ], [ %8, %6 ]
  %10 = getelementptr inbounds i8, ptr %1, i64 16
  %11 = load ptr, ptr %10, align 8
  %12 = getelementptr inbounds i8, ptr %1, i64 8
  %13 = load ptr, ptr %12, align 8
  %14 = ptrtoint ptr %11 to i64
  %15 = ptrtoint ptr %13 to i64
  %16 = sub i64 %14, %15
  %17 = trunc i64 %16 to i32
  %18 = getelementptr inbounds i8, ptr %9, i64 32
  store i32 %17, ptr %18, align 8
  %19 = load ptr, ptr %12, align 8
  %20 = load ptr, ptr %10, align 8
  %21 = ptrtoint ptr %20 to i64
  %22 = ptrtoint ptr %19 to i64
  %23 = sub i64 %21, %22
  %24 = trunc i64 %23 to i32
  %25 = tail call noundef i32 @_ZN11ClassLoader5crc32EiPKci(i32 noundef 0, ptr noundef %19, i32 noundef %24) #18
  %26 = getelementptr inbounds i8, ptr %9, i64 36
  store i32 %25, ptr %26, align 4
  ret void
}